target datalayout = "e-m:e-p270:32:32-p271:32:32-p272:64:64-i64:64-i128:128-f80:128-n8:16:32:64-S128"
target triple = "x86_64-pc-linux-gnu"

%struct.ossl_param_st = type { ptr, i32, ptr, i64, i64 }

@.str.1 = private unnamed_addr constant [27 x i8] c"../openssl/apps/lib/apps.c\00", align 1
@bio_err = external global ptr, align 8
@.str.154 = private unnamed_addr constant [1 x i8] zeroinitializer, align 1
@.str.179 = private unnamed_addr constant [19 x i8] c"Parameter %s '%s'\0A\00", align 1
@.str.180 = private unnamed_addr constant [6 x i8] c"error\00", align 1
@.str.181 = private unnamed_addr constant [8 x i8] c"unknown\00", align 1

; Function Attrs: nounwind uwtable
define dso_local void @app_params_free(ptr noundef %0) #0 {
  %2 = alloca ptr, align 8
  %3 = alloca i32, align 4
  store ptr %0, ptr %2, align 8, !tbaa !65
  call void @llvm.lifetime.start.p0(i64 4, ptr %3) #12
  %4 = load ptr, ptr %2, align 8, !tbaa !65
  %5 = icmp ne ptr %4, null
  br i1 %5, label %6, label %27

6:                                                ; preds = %1
  store i32 0, ptr %3, align 4, !tbaa !25
  br label %7

7:                                                ; preds = %22, %6
  %8 = load ptr, ptr %2, align 8, !tbaa !65
  %9 = load i32, ptr %3, align 4, !tbaa !25
  %10 = sext i32 %9 to i64
  %11 = getelementptr inbounds %struct.ossl_param_st, ptr %8, i64 %10
  %12 = getelementptr inbounds nuw %struct.ossl_param_st, ptr %11, i32 0, i32 0
  %13 = load ptr, ptr %12, align 8, !tbaa !193
  %14 = icmp ne ptr %13, null
  br i1 %14, label %15, label %25

15:                                               ; preds = %7
  %16 = load ptr, ptr %2, align 8, !tbaa !65
  %17 = load i32, ptr %3, align 4, !tbaa !25
  %18 = sext i32 %17 to i64
  %19 = getelementptr inbounds %struct.ossl_param_st, ptr %16, i64 %18
  %20 = getelementptr inbounds nuw %struct.ossl_param_st, ptr %19, i32 0, i32 2
  %21 = load ptr, ptr %20, align 8, !tbaa !195
  call void @CRYPTO_free(ptr noundef %21, ptr noundef @.str.1, i32 noundef 3484)
  br label %22

22:                                               ; preds = %15
  %23 = load i32, ptr %3, align 4, !tbaa !25
  %24 = add nsw i32 %23, 1
  store i32 %24, ptr %3, align 4, !tbaa !25
  br label %7, !llvm.loop !196

25:                                               ; preds = %7
  %26 = load ptr, ptr %2, align 8, !tbaa !65
  call void @CRYPTO_free(ptr noundef %26, ptr noundef @.str.1, i32 noundef 3485)
  br label %27

27:                                               ; preds = %25, %1
  call void @llvm.lifetime.end.p0(i64 4, ptr %3) #12
  ret void
}

; Function Attrs: inlinehint nounwind uwtable
define internal ptr @ossl_check_const_OPENSSL_STRING_sk_type(ptr noundef %0) #5 {
  %2 = alloca ptr, align 8
  store ptr %0, ptr %2, align 8, !tbaa !84
  %3 = load ptr, ptr %2, align 8, !tbaa !84
  ret ptr %3
}

; Function Attrs: nounwind uwtable
define dso_local ptr @app_params_new_from_opts(ptr noundef %0, ptr noundef %1) #0 {
  %3 = alloca ptr, align 8
  %4 = alloca ptr, align 8
  %5 = alloca ptr, align 8
  %6 = alloca ptr, align 8
  %7 = alloca i64, align 8
  %8 = alloca i64, align 8
  %9 = alloca ptr, align 8
  %10 = alloca ptr, align 8
  %11 = alloca ptr, align 8
  %12 = alloca i32, align 4
  %13 = alloca i32, align 4
  %14 = alloca %struct.ossl_param_st, align 8
  store ptr %0, ptr %4, align 8, !tbaa !84
  store ptr %1, ptr %5, align 8, !tbaa !65
  call void @llvm.lifetime.start.p0(i64 8, ptr %6) #12
  store ptr null, ptr %6, align 8, !tbaa !65
  call void @llvm.lifetime.start.p0(i64 8, ptr %7) #12
  %15 = load ptr, ptr %4, align 8, !tbaa !84
  %16 = call ptr @ossl_check_const_OPENSSL_STRING_sk_type(ptr noundef %15)
  %17 = call i32 @OPENSSL_sk_num(ptr noundef %16)
  %18 = sext i32 %17 to i64
  store i64 %18, ptr %7, align 8, !tbaa !28
  call void @llvm.lifetime.start.p0(i64 8, ptr %8) #12
  call void @llvm.lifetime.start.p0(i64 8, ptr %9) #12
  store ptr @.str.154, ptr %9, align 8, !tbaa !9
  call void @llvm.lifetime.start.p0(i64 8, ptr %10) #12
  call void @llvm.lifetime.start.p0(i64 8, ptr %11) #12
  store ptr null, ptr %11, align 8, !tbaa !9
  call void @llvm.lifetime.start.p0(i64 4, ptr %12) #12
  store i32 1, ptr %12, align 4, !tbaa !25
  %19 = load ptr, ptr %4, align 8, !tbaa !84
  %20 = icmp eq ptr %19, null
  br i1 %20, label %21, label %22

21:                                               ; preds = %2
  store ptr null, ptr %3, align 8
  store i32 1, ptr %13, align 4
  br label %84

22:                                               ; preds = %2
  %23 = load i64, ptr %7, align 8, !tbaa !28
  %24 = add i64 %23, 1
  %25 = mul i64 40, %24
  %26 = call noalias ptr @CRYPTO_zalloc(i64 noundef %25, ptr noundef @.str.1, i32 noundef 3449)
  store ptr %26, ptr %6, align 8, !tbaa !65
  %27 = load ptr, ptr %6, align 8, !tbaa !65
  %28 = icmp eq ptr %27, null
  br i1 %28, label %29, label %30

29:                                               ; preds = %22
  store ptr null, ptr %3, align 8
  store i32 1, ptr %13, align 4
  br label %84

30:                                               ; preds = %22
  store i64 0, ptr %8, align 8, !tbaa !28
  br label %31

31:                                               ; preds = %66, %30
  %32 = load i64, ptr %8, align 8, !tbaa !28
  %33 = load i64, ptr %7, align 8, !tbaa !28
  %34 = icmp ult i64 %32, %33
  br i1 %34, label %35, label %69

35:                                               ; preds = %31
  %36 = load ptr, ptr %4, align 8, !tbaa !84
  %37 = call ptr @ossl_check_const_OPENSSL_STRING_sk_type(ptr noundef %36)
  %38 = load i64, ptr %8, align 8, !tbaa !28
  %39 = trunc i64 %38 to i32
  %40 = call ptr @OPENSSL_sk_value(ptr noundef %37, i32 noundef %39)
  store ptr %40, ptr %9, align 8, !tbaa !9
  %41 = load ptr, ptr %9, align 8, !tbaa !9
  %42 = call noalias ptr @CRYPTO_strdup(ptr noundef %41, ptr noundef @.str.1, i32 noundef 3455)
  store ptr %42, ptr %10, align 8, !tbaa !9
  %43 = icmp eq ptr %42, null
  br i1 %43, label %48, label %44

44:                                               ; preds = %35
  %45 = load ptr, ptr %10, align 8, !tbaa !9
  %46 = call ptr @strchr(ptr noundef %45, i32 noundef 58) #14
  store ptr %46, ptr %11, align 8, !tbaa !9
  %47 = icmp eq ptr %46, null
  br i1 %47, label %48, label %49

48:                                               ; preds = %44, %35
  br label %74

49:                                               ; preds = %44
  %50 = load ptr, ptr %11, align 8, !tbaa !9
  store i8 0, ptr %50, align 1, !tbaa !11
  %51 = load ptr, ptr %11, align 8, !tbaa !9
  %52 = getelementptr inbounds nuw i8, ptr %51, i32 1
  store ptr %52, ptr %11, align 8, !tbaa !9
  %53 = load ptr, ptr %6, align 8, !tbaa !65
  %54 = load i64, ptr %8, align 8, !tbaa !28
  %55 = getelementptr inbounds nuw %struct.ossl_param_st, ptr %53, i64 %54
  %56 = load ptr, ptr %5, align 8, !tbaa !65
  %57 = load ptr, ptr %10, align 8, !tbaa !9
  %58 = load ptr, ptr %11, align 8, !tbaa !9
  %59 = load ptr, ptr %11, align 8, !tbaa !9
  %60 = call i64 @strlen(ptr noundef %59) #14
  %61 = call i32 @OSSL_PARAM_allocate_from_text(ptr noundef %55, ptr noundef %56, ptr noundef %57, ptr noundef %58, i64 noundef %60, ptr noundef %12)
  %62 = icmp ne i32 %61, 0
  br i1 %62, label %64, label %63

63:                                               ; preds = %49
  br label %74

64:                                               ; preds = %49
  %65 = load ptr, ptr %10, align 8, !tbaa !9
  call void @CRYPTO_free(ptr noundef %65, ptr noundef @.str.1, i32 noundef 3465)
  br label %66

66:                                               ; preds = %64
  %67 = load i64, ptr %8, align 8, !tbaa !28
  %68 = add i64 %67, 1
  store i64 %68, ptr %8, align 8, !tbaa !28
  br label %31, !llvm.loop !192

69:                                               ; preds = %31
  %70 = load ptr, ptr %6, align 8, !tbaa !65
  %71 = load i64, ptr %8, align 8, !tbaa !28
  %72 = getelementptr inbounds nuw %struct.ossl_param_st, ptr %70, i64 %71
  call void @llvm.lifetime.start.p0(i64 40, ptr %14) #12
  call void @OSSL_PARAM_construct_end(ptr dead_on_unwind writable sret(%struct.ossl_param_st) align 8 %14)
  call void @llvm.memcpy.p0.p0.i64(ptr align 8 %72, ptr align 8 %14, i64 40, i1 false), !tbaa.struct !78
  call void @llvm.lifetime.end.p0(i64 40, ptr %14) #12
  %73 = load ptr, ptr %6, align 8, !tbaa !65
  store ptr %73, ptr %3, align 8
  store i32 1, ptr %13, align 4
  br label %84

74:                                               ; preds = %63, %48
  %75 = load ptr, ptr %10, align 8, !tbaa !9
  call void @CRYPTO_free(ptr noundef %75, ptr noundef @.str.1, i32 noundef 3470)
  %76 = load ptr, ptr @bio_err, align 8, !tbaa !35
  %77 = load i32, ptr %12, align 4, !tbaa !25
  %78 = icmp ne i32 %77, 0
  %79 = select i1 %78, ptr @.str.180, ptr @.str.181
  %80 = load ptr, ptr %9, align 8, !tbaa !9
  %81 = call i32 (ptr, ptr, ...) @BIO_printf(ptr noundef %76, ptr noundef @.str.179, ptr noundef %79, ptr noundef %80)
  %82 = load ptr, ptr @bio_err, align 8, !tbaa !35
  call void @ERR_print_errors(ptr noundef %82)
  %83 = load ptr, ptr %6, align 8, !tbaa !65
  call void @app_params_free(ptr noundef %83)
  store ptr null, ptr %3, align 8
  store i32 1, ptr %13, align 4
  br label %84

84:                                               ; preds = %74, %69, %29, %21
  call void @llvm.lifetime.end.p0(i64 4, ptr %12) #12
  call void @llvm.lifetime.end.p0(i64 8, ptr %11) #12
  call void @llvm.lifetime.end.p0(i64 8, ptr %10) #12
  call void @llvm.lifetime.end.p0(i64 8, ptr %9) #12
  call void @llvm.lifetime.end.p0(i64 8, ptr %8) #12
  call void @llvm.lifetime.end.p0(i64 8, ptr %7) #12
  call void @llvm.lifetime.end.p0(i64 8, ptr %6) #12
  %85 = load ptr, ptr %3, align 8
  ret ptr %85
}