; Function Attrs: nounwind uwtable
define dso_local ptr @app_params_new_from_opts(ptr noundef %0, ptr noundef %1) local_unnamed_addr #0 {
  %3 = alloca i32, align 4
  %4 = alloca %struct.ossl_param_st, align 8
  %5 = tail call i32 @OPENSSL_sk_num(ptr noundef %0) #27
  %6 = sext i32 %5 to i64
  call void @llvm.lifetime.start.p0(i64 4, ptr nonnull %3) #27
  store i32 1, ptr %3, align 4, !tbaa !30
  %7 = icmp eq ptr %0, null
  br i1 %7, label %38, label %8

8:                                                ; preds = %2
  %9 = mul nsw i64 %6, 40
  %10 = add nsw i64 %9, 40
  %11 = tail call noalias ptr @CRYPTO_zalloc(i64 noundef %10, ptr noundef nonnull @.str.1, i32 noundef 3449) #27
  %12 = icmp eq ptr %11, null
  br i1 %12, label %38, label %.preheader

.preheader:                                       ; preds = %8
  %.not35 = icmp eq i32 %5, 0
  br i1 %.not35, label %._crit_edge, label %.lr.ph

.lr.ph:                                           ; preds = %.preheader, %25
  %.02634 = phi i64 [ %26, %25 ], [ 0, %.preheader ]
  %13 = trunc i64 %.02634 to i32
  %14 = call ptr @OPENSSL_sk_value(ptr noundef nonnull %0, i32 noundef %13) #27
  %15 = call noalias ptr @CRYPTO_strdup(ptr noundef %14, ptr noundef nonnull @.str.1, i32 noundef 3455) #27
  %16 = icmp eq ptr %15, null
  br i1 %16, label %.preheader.i, label %17

17:                                               ; preds = %.lr.ph
  %18 = call ptr @strchr(ptr noundef nonnull dereferenceable(1) %15, i32 noundef 58) #29
  %19 = icmp eq ptr %18, null
  br i1 %19, label %.preheader.i, label %20

20:                                               ; preds = %17
  store i8 0, ptr %18, align 1, !tbaa !13
  %21 = getelementptr inbounds nuw i8, ptr %18, i64 1
  %22 = getelementptr inbounds nuw %struct.ossl_param_st, ptr %11, i64 %.02634
  %23 = call i64 @strlen(ptr noundef nonnull dereferenceable(1) %21) #29
  %24 = call i32 @OSSL_PARAM_allocate_from_text(ptr noundef nonnull %22, ptr noundef %1, ptr noundef nonnull %15, ptr noundef nonnull %21, i64 noundef %23, ptr noundef nonnull %3) #27
  %.not = icmp eq i32 %24, 0
  br i1 %.not, label %.preheader.i, label %25

25:                                               ; preds = %20
  call void @CRYPTO_free(ptr noundef nonnull %15, ptr noundef nonnull @.str.1, i32 noundef 3465) #27
  %26 = add nuw i64 %.02634, 1
  %exitcond.not = icmp eq i64 %26, %6
  br i1 %exitcond.not, label %._crit_edge, label %.lr.ph, !llvm.loop !115

._crit_edge:                                      ; preds = %25, %.preheader
  %27 = getelementptr inbounds nuw %struct.ossl_param_st, ptr %11, i64 %6
  call void @llvm.lifetime.start.p0(i64 40, ptr nonnull %4) #27
  call void @OSSL_PARAM_construct_end(ptr dead_on_unwind nonnull writable sret(%struct.ossl_param_st) align 8 %4) #27
  call void @llvm.memcpy.p0.p0.i64(ptr noundef nonnull align 8 dereferenceable(40) %27, ptr noundef nonnull align 8 dereferenceable(40) %4, i64 40, i1 false), !tbaa.struct !48
  call void @llvm.lifetime.end.p0(i64 40, ptr nonnull %4) #27
  br label %38

.preheader.i:                                     ; preds = %17, %.lr.ph, %20
  call void @CRYPTO_free(ptr noundef %15, ptr noundef nonnull @.str.1, i32 noundef 3470) #27
  %28 = load ptr, ptr @bio_err, align 8, !tbaa !26
  %29 = load i32, ptr %3, align 4, !tbaa !30
  %.not31 = icmp eq i32 %29, 0
  %30 = select i1 %.not31, ptr @.str.181, ptr @.str.180
  %31 = call i32 (ptr, ptr, ...) @BIO_printf(ptr noundef %28, ptr noundef nonnull @.str.179, ptr noundef nonnull %30, ptr noundef %14) #27
  %32 = load ptr, ptr @bio_err, align 8, !tbaa !26
  call void @ERR_print_errors(ptr noundef %32) #27
  %33 = load ptr, ptr %11, align 8, !tbaa !116
  %.not78.i = icmp eq ptr %33, null
  br i1 %.not78.i, label %app_params_free.exit, label %.lr.ph.i

.lr.ph.i:                                         ; preds = %.preheader.i, %.lr.ph.i
  %indvars.iv.i = phi i64 [ %indvars.iv.next.i, %.lr.ph.i ], [ 0, %.preheader.i ]
  %34 = getelementptr inbounds nuw %struct.ossl_param_st, ptr %11, i64 %indvars.iv.i, i32 2
  %35 = load ptr, ptr %34, align 8, !tbaa !118
  call void @CRYPTO_free(ptr noundef %35, ptr noundef nonnull @.str.1, i32 noundef 3484) #27
  %indvars.iv.next.i = add nuw nsw i64 %indvars.iv.i, 1
  %36 = getelementptr inbounds nuw %struct.ossl_param_st, ptr %11, i64 %indvars.iv.next.i
  %37 = load ptr, ptr %36, align 8, !tbaa !116
  %.not7.i = icmp eq ptr %37, null
  br i1 %.not7.i, label %app_params_free.exit, label %.lr.ph.i, !llvm.loop !119

app_params_free.exit:                             ; preds = %.lr.ph.i, %.preheader.i
  call void @CRYPTO_free(ptr noundef nonnull %11, ptr noundef nonnull @.str.1, i32 noundef 3485) #27
  br label %38

38:                                               ; preds = %8, %2, %app_params_free.exit, %._crit_edge
  %.0 = phi ptr [ null, %app_params_free.exit ], [ %11, %._crit_edge ], [ null, %2 ], [ null, %8 ]
  call void @llvm.lifetime.end.p0(i64 4, ptr nonnull %3) #27
  ret ptr %.0
}